(lp0
(lp1
S'2005 NCAA Division I-A football season'
p2
aS'https://en.wikipedia.org/wiki/2005_NCAA_Division_I-A_football_season'
p3
aI2391
aF77.0
aS'1.93'
p4
aa(lp5
S'2nd Battalion, 377th Field Artillery Regiment'
p6
aS'https://en.wikipedia.org/wiki/2nd_Battalion,_377th_Field_Artillery_Regiment'
p7
aI576
aF32.11
aS'1.66'
p8
aa(lp9
S'2016 Australian National Handball Championship season'
p10
aS'https://en.wikipedia.org/wiki/2016_Australian_National_Handball_Championship_season'
p11
aI130
aF90.09
aS'-1.37'
p12
aa(lp13
S"2002\xe2\x80\x9303 Georgia Tech Yellow Jackets men's basketball team"
p14
aS'https://en.wikipedia.org/wiki/2002%E2%80%9303_Georgia_Tech_Yellow_Jackets_men%27s_basketball_team'
p15
aI201
aF91.79
aS'-1.36'
p16
aa(lp17
S"2016\xe2\x80\x9317 Weber State Wildcats men's basketball team"
p18
aS'https://en.wikipedia.org/wiki/2016%E2%80%9317_Weber_State_Wildcats_men%27s_basketball_team'
p19
aI698
aF94.14
aS'-0.86'
p20
aa.