ccollections
OrderedDict
p0
((lp1
(lp2
S'Addiction'
p3
a(lp4
S'https://en.wikipedia.org/wiki/Addiction'
p5
aI33472
aF41.53
aS'6.54'
p6
aaa(lp7
S'2nd Battalion, 377th Field Artillery Regiment'
p8
a(lp9
S'https://en.wikipedia.org/wiki/2nd_Battalion,_377th_Field_Artillery_Regiment'
p10
aI428
aF27.25
aS'2.56'
p11
aaa(lp12
S'AGCO'
p13
a(lp14
S'https://en.wikipedia.org/wiki/AGCO'
p15
aI7891
aF60.2
aS'1.43'
p16
aaa(lp17
S'Afghans in Pakistan'
p18
a(lp19
S'https://en.wikipedia.org/wiki/Afghans_in_Pakistan'
p20
aI5414
aF59.62
aS'1.10'
p21
aaa(lp22
S'Adaraneeya Kathawak'
p23
a(lp24
S'https://en.wikipedia.org/wiki/Adaraneeya_Kathawak'
p25
aI4214
aF61.25
aS'0.81'
p26
aaa(lp27
S'Ajna'
p28
a(lp29
S'https://en.wikipedia.org/wiki/Ajna'
p30
aI8137
aF72.4
aS'0.63'
p31
aaa(lp32
S'Ahmadiyya and other faiths'
p33
a(lp34
S'https://en.wikipedia.org/wiki/Ahmadiyya_and_other_faiths'
p35
aI312
aF58.23
aS'0.43'
p36
aaa(lp37
S'ADMU Lady Blue Spikers'
p38
a(lp39
S'https://en.wikipedia.org/wiki/ADMU_Lady_Blue_Spikers'
p40
aI7839
aF77.59
aS'0.23'
p41
aaa(lp42
S'Akbar S. Ahmed'
p43
a(lp44
S'https://en.wikipedia.org/wiki/Akbar_S._Ahmed'
p45
aI1470
aF64.98
aS'0.14'
p46
aaa(lp47
S"2002\xe2\x80\x9303 Georgia Tech Yellow Jackets men's basketball team"
p48
a(lp49
S'https://en.wikipedia.org/wiki/2002%E2%80%9303_Georgia_Tech_Yellow_Jackets_men%27s_basketball_team'
p50
aI333
aF91.79
aS'-1.86'
p51
aaa(lp52
S'7 Mages'
p53
a(lp54
S'https://en.wikipedia.org/wiki/7_Mages'
p55
aI1230
aF91.91
aS'-1.74'
p56
aaa(lp57
S'Yevgeny Agureev'
p58
a(lp59
S'https://en.wikipedia.org/wiki/Yevgeny_Agureev'
p60
aI748
aF90.1
aS'-1.69'
p61
aaa(lp62
S'Aizawl North College'
p63
a(lp64
S'https://en.wikipedia.org/wiki/Aizawl_North_College'
p65
aI198
aF86.63
aS'-1.53'
p66
aaa(lp67
S'Tewfik Abdullah'
p68
a(lp69
S'https://en.wikipedia.org/wiki/Tewfik_Abdullah'
p70
aI350
aF85.11
aS'-1.41'
p71
aaa(lp72
S'Seyedmeysam Aghaseyedhosseini'
p73
a(lp74
S'https://en.wikipedia.org/wiki/Seyedmeysam_Aghaseyedhosseini'
p75
aI1199
aF82.24
aS'-1.08'
p76
aaa(lp77
S'Hrachia Adjarian'
p78
a(lp79
S'https://en.wikipedia.org/wiki/Hrachia_Adjarian'
p80
aI428
aF78.07
aS'-0.91'
p81
aaa(lp82
S'Ait Irane'
p83
a(lp84
S'https://en.wikipedia.org/wiki/Ait_Irane'
p85
aI285
aF76.32
aS'-0.81'
p86
aaa(lp87
S'Airport T1 (Barcelona Metro)'
p88
a(lp89
S'https://en.wikipedia.org/wiki/Airport_T1_(Barcelona_Metro)'
p90
aI440
aF73.44
aS'-0.59'
p91
aaa(lp92
S'2005 NCAA Division I-A football season'
p93
a(lp94
S'https://en.wikipedia.org/wiki/2005_NCAA_Division_I-A_football_season'
p95
aI2083
aF77.0
aS'-0.59'
p96
aaa(lp97
S'Afaqi Khoja revolts'
p98
a(lp99
S'https://en.wikipedia.org/wiki/Afaqi_Khoja_revolts'
p100
aI438
aF71.68
aS'-0.47'
p101
aaa(lp102
S'Ada Cinta Di SMA'
p103
a(lp104
S'https://en.wikipedia.org/wiki/Ada_Cinta_Di_SMA'
p105
aI650
aF71.58
aS'-0.44'
p106
aaa(lp107
S'Sina Afra'
p108
a(lp109
S'https://en.wikipedia.org/wiki/Sina_Afra'
p110
aI518
aF70.69
aS'-0.39'
p111
aaa(lp112
S'United States Air Force Basic Training scandal'
p113
a(lp114
S'https://en.wikipedia.org/wiki/United_States_Air_Force_Basic_Training_scandal'
p115
aI1513
aF70.11
aS'-0.21'
p116
aaa(lp117
S'AD700'
p118
a(lp119
S'https://en.wikipedia.org/wiki/AD700'
p120
aI141
aF65.06
aS'-0.07'
p121
aaa(lp122
S'3rd Indonesian Choice Awards'
p123
a(lp124
S'https://en.wikipedia.org/wiki/3rd_Indonesian_Choice_Awards'
p125
aI756
aF66.39
aS'-0.06'
p126
aaatp127
Rp128
.